; ModuleID = '350.c'
source_filename = "350.c"
target datalayout = "e-m:e-p270:32:32-p271:32:32-p272:64:64-i64:64-f80:128-n8:16:32:64-S128"
target triple = "x86_64-pc-linux-gnu"

@.str = private unnamed_addr constant [5 x i8] c"%d%d\00", align 1
@.str.1 = private unnamed_addr constant [3 x i8] c"%d\00", align 1
@.str.2 = private unnamed_addr constant [4 x i8] c"%d\0A\00", align 1

; Function Attrs: noinline nounwind uwtable
define dso_local i32 @main() #0 {
  %1 = alloca i32, align 4
  %2 = alloca i32, align 4
  %3 = alloca i32, align 4
  %4 = alloca i32, align 4
  %5 = alloca i32, align 4
  %6 = alloca i32, align 4
  %7 = alloca i32, align 4
  %8 = alloca [100 x [100 x i32]], align 16
  store i32 0, i32* %1, align 4
  store i32 0, i32* %7, align 4
  %9 = call i32 (i8*, ...) @__isoc99_scanf(i8* getelementptr inbounds ([5 x i8], [5 x i8]* @.str, i64 0, i64 0), i32* %2, i32* %3)
  store i32 0, i32* %4, align 4
  br label %10

10:                                               ; preds = %31, %0
  %11 = load i32, i32* %4, align 4
  %12 = load i32, i32* %2, align 4
  %13 = icmp slt i32 %11, %12
  br i1 %13, label %14, label %34

14:                                               ; preds = %10
  store i32 0, i32* %5, align 4
  br label %15

15:                                               ; preds = %27, %14
  %16 = load i32, i32* %5, align 4
  %17 = load i32, i32* %3, align 4
  %18 = icmp slt i32 %16, %17
  br i1 %18, label %19, label %30

19:                                               ; preds = %15
  %20 = load i32, i32* %4, align 4
  %21 = sext i32 %20 to i64
  %22 = getelementptr inbounds [100 x [100 x i32]], [100 x [100 x i32]]* %8, i64 0, i64 %21
  %23 = load i32, i32* %5, align 4
  %24 = sext i32 %23 to i64
  %25 = getelementptr inbounds [100 x i32], [100 x i32]* %22, i64 0, i64 %24
  %26 = call i32 (i8*, ...) @__isoc99_scanf(i8* getelementptr inbounds ([3 x i8], [3 x i8]* @.str.1, i64 0, i64 0), i32* %25)
  br label %27

27:                                               ; preds = %19
  %28 = load i32, i32* %5, align 4
  %29 = add nsw i32 %28, 1
  store i32 %29, i32* %5, align 4
  br label %15

30:                                               ; preds = %15
  br label %31

31:                                               ; preds = %30
  %32 = load i32, i32* %4, align 4
  %33 = add nsw i32 %32, 1
  store i32 %33, i32* %4, align 4
  br label %10

34:                                               ; preds = %10
  store i32 0, i32* %6, align 4
  br label %35

35:                                               ; preds = %164, %34
  %36 = load i32, i32* %6, align 4
  store i32 %36, i32* %4, align 4
  br label %37

37:                                               ; preds = %55, %35
  %38 = load i32, i32* %4, align 4
  %39 = load i32, i32* %3, align 4
  %40 = load i32, i32* %6, align 4
  %41 = sub nsw i32 %39, %40
  %42 = sub nsw i32 %41, 1
  %43 = icmp sle i32 %38, %42
  br i1 %43, label %44, label %58

44:                                               ; preds = %37
  %45 = load i32, i32* %6, align 4
  %46 = sext i32 %45 to i64
  %47 = getelementptr inbounds [100 x [100 x i32]], [100 x [100 x i32]]* %8, i64 0, i64 %46
  %48 = load i32, i32* %4, align 4
  %49 = sext i32 %48 to i64
  %50 = getelementptr inbounds [100 x i32], [100 x i32]* %47, i64 0, i64 %49
  %51 = load i32, i32* %50, align 4
  %52 = call i32 (i8*, ...) @printf(i8* getelementptr inbounds ([4 x i8], [4 x i8]* @.str.2, i64 0, i64 0), i32 %51)
  %53 = load i32, i32* %7, align 4
  %54 = add nsw i32 %53, 1
  store i32 %54, i32* %7, align 4
  br label %55

55:                                               ; preds = %44
  %56 = load i32, i32* %4, align 4
  %57 = add nsw i32 %56, 1
  store i32 %57, i32* %4, align 4
  br label %37

58:                                               ; preds = %37
  %59 = load i32, i32* %7, align 4
  %60 = load i32, i32* %2, align 4
  %61 = load i32, i32* %3, align 4
  %62 = mul nsw i32 %60, %61
  %63 = icmp eq i32 %59, %62
  br i1 %63, label %64, label %65

64:                                               ; preds = %58
  br label %167

65:                                               ; preds = %58
  %66 = load i32, i32* %6, align 4
  %67 = add nsw i32 %66, 1
  store i32 %67, i32* %5, align 4
  br label %68

68:                                               ; preds = %89, %65
  %69 = load i32, i32* %5, align 4
  %70 = load i32, i32* %2, align 4
  %71 = load i32, i32* %6, align 4
  %72 = sub nsw i32 %70, %71
  %73 = sub nsw i32 %72, 1
  %74 = icmp sle i32 %69, %73
  br i1 %74, label %75, label %92

75:                                               ; preds = %68
  %76 = load i32, i32* %5, align 4
  %77 = sext i32 %76 to i64
  %78 = getelementptr inbounds [100 x [100 x i32]], [100 x [100 x i32]]* %8, i64 0, i64 %77
  %79 = load i32, i32* %3, align 4
  %80 = load i32, i32* %6, align 4
  %81 = sub nsw i32 %79, %80
  %82 = sub nsw i32 %81, 1
  %83 = sext i32 %82 to i64
  %84 = getelementptr inbounds [100 x i32], [100 x i32]* %78, i64 0, i64 %83
  %85 = load i32, i32* %84, align 4
  %86 = call i32 (i8*, ...) @printf(i8* getelementptr inbounds ([4 x i8], [4 x i8]* @.str.2, i64 0, i64 0), i32 %85)
  %87 = load i32, i32* %7, align 4
  %88 = add nsw i32 %87, 1
  store i32 %88, i32* %7, align 4
  br label %89

89:                                               ; preds = %75
  %90 = load i32, i32* %5, align 4
  %91 = add nsw i32 %90, 1
  store i32 %91, i32* %5, align 4
  br label %68

92:                                               ; preds = %68
  %93 = load i32, i32* %7, align 4
  %94 = load i32, i32* %2, align 4
  %95 = load i32, i32* %3, align 4
  %96 = mul nsw i32 %94, %95
  %97 = icmp eq i32 %93, %96
  br i1 %97, label %98, label %99

98:                                               ; preds = %92
  br label %167

99:                                               ; preds = %92
  %100 = load i32, i32* %3, align 4
  %101 = load i32, i32* %6, align 4
  %102 = sub nsw i32 %100, %101
  %103 = sub nsw i32 %102, 2
  store i32 %103, i32* %4, align 4
  br label %104

104:                                              ; preds = %122, %99
  %105 = load i32, i32* %4, align 4
  %106 = load i32, i32* %6, align 4
  %107 = icmp sge i32 %105, %106
  br i1 %107, label %108, label %125

108:                                              ; preds = %104
  %109 = load i32, i32* %2, align 4
  %110 = load i32, i32* %6, align 4
  %111 = sub nsw i32 %109, %110
  %112 = sub nsw i32 %111, 1
  %113 = sext i32 %112 to i64
  %114 = getelementptr inbounds [100 x [100 x i32]], [100 x [100 x i32]]* %8, i64 0, i64 %113
  %115 = load i32, i32* %4, align 4
  %116 = sext i32 %115 to i64
  %117 = getelementptr inbounds [100 x i32], [100 x i32]* %114, i64 0, i64 %116
  %118 = load i32, i32* %117, align 4
  %119 = call i32 (i8*, ...) @printf(i8* getelementptr inbounds ([4 x i8], [4 x i8]* @.str.2, i64 0, i64 0), i32 %118)
  %120 = load i32, i32* %7, align 4
  %121 = add nsw i32 %120, 1
  store i32 %121, i32* %7, align 4
  br label %122

122:                                              ; preds = %108
  %123 = load i32, i32* %4, align 4
  %124 = add nsw i32 %123, -1
  store i32 %124, i32* %4, align 4
  br label %104

125:                                              ; preds = %104
  %126 = load i32, i32* %7, align 4
  %127 = load i32, i32* %2, align 4
  %128 = load i32, i32* %3, align 4
  %129 = mul nsw i32 %127, %128
  %130 = icmp eq i32 %126, %129
  br i1 %130, label %131, label %132

131:                                              ; preds = %125
  br label %167

132:                                              ; preds = %125
  %133 = load i32, i32* %2, align 4
  %134 = load i32, i32* %6, align 4
  %135 = sub nsw i32 %133, %134
  %136 = sub nsw i32 %135, 2
  store i32 %136, i32* %5, align 4
  br label %137

137:                                              ; preds = %153, %132
  %138 = load i32, i32* %5, align 4
  %139 = load i32, i32* %6, align 4
  %140 = add nsw i32 %139, 1
  %141 = icmp sge i32 %138, %140
  br i1 %141, label %142, label %156

142:                                              ; preds = %137
  %143 = load i32, i32* %5, align 4
  %144 = sext i32 %143 to i64
  %145 = getelementptr inbounds [100 x [100 x i32]], [100 x [100 x i32]]* %8, i64 0, i64 %144
  %146 = load i32, i32* %6, align 4
  %147 = sext i32 %146 to i64
  %148 = getelementptr inbounds [100 x i32], [100 x i32]* %145, i64 0, i64 %147
  %149 = load i32, i32* %148, align 4
  %150 = call i32 (i8*, ...) @printf(i8* getelementptr inbounds ([4 x i8], [4 x i8]* @.str.2, i64 0, i64 0), i32 %149)
  %151 = load i32, i32* %7, align 4
  %152 = add nsw i32 %151, 1
  store i32 %152, i32* %7, align 4
  br label %153

153:                                              ; preds = %142
  %154 = load i32, i32* %5, align 4
  %155 = add nsw i32 %154, -1
  store i32 %155, i32* %5, align 4
  br label %137

156:                                              ; preds = %137
  %157 = load i32, i32* %7, align 4
  %158 = load i32, i32* %2, align 4
  %159 = load i32, i32* %3, align 4
  %160 = mul nsw i32 %158, %159
  %161 = icmp eq i32 %157, %160
  br i1 %161, label %162, label %163

162:                                              ; preds = %156
  br label %167

163:                                              ; preds = %156
  br label %164

164:                                              ; preds = %163
  %165 = load i32, i32* %6, align 4
  %166 = add nsw i32 %165, 1
  store i32 %166, i32* %6, align 4
  br label %35

167:                                              ; preds = %162, %131, %98, %64
  ret i32 0
}

declare dso_local i32 @__isoc99_scanf(i8*, ...) #1

declare dso_local i32 @printf(i8*, ...) #1


!llvm.module.flags = !{!0}
!llvm.ident = !{!1}

!0 = !{i32 1, !"wchar_size", i32 4}
!1 = !{!"clang version 10.0.0-4ubuntu1 "}
